TN:
SF:/Users/michelguillaume/Documents/Michel/code/boost_server/BoostServer/src/HttpListener.cpp
FN:3,_ZN12HttpListenerC1ERN5boost4asio10io_contextENS1_2ip14basic_endpointINS4_3tcpEEERKNSt3__110shared_ptrIKNS8_12basic_stringIcNS8_11char_traitsIcEENS8_9allocatorIcEEEEEE
FN:3,_ZN12HttpListenerC2ERN5boost4asio10io_contextENS1_2ip14basic_endpointINS4_3tcpEEERKNSt3__110shared_ptrIKNS8_12basic_stringIcNS8_11char_traitsIcEENS8_9allocatorIcEEEEEE
FN:38,_ZN12HttpListener3runEv
FN:40,_ZN12HttpListener8doAcceptEv
FN:47,_ZN12HttpListener8onAcceptEN5boost6system10error_codeENS0_4asio19basic_stream_socketINS3_2ip3tcpENS3_8executorEEE
FNDA:0,_ZN12HttpListenerC2ERN5boost4asio10io_contextENS1_2ip14basic_endpointINS4_3tcpEEERKNSt3__110shared_ptrIKNS8_12basic_stringIcNS8_11char_traitsIcEENS8_9allocatorIcEEEEEE
FNDA:0,_ZN12HttpListenerC1ERN5boost4asio10io_contextENS1_2ip14basic_endpointINS4_3tcpEEERKNSt3__110shared_ptrIKNS8_12basic_stringIcNS8_11char_traitsIcEENS8_9allocatorIcEEEEEE
FNDA:0,_ZN12HttpListener3runEv
FNDA:0,_ZN12HttpListener8doAcceptEv
FNDA:0,_ZN12HttpListener8onAcceptEN5boost6system10error_codeENS0_4asio19basic_stream_socketINS3_2ip3tcpENS3_8executorEEE
FNF:5
FNH:0
DA:3,0
DA:5,0
DA:6,0
DA:9,0
DA:10,0
DA:11,0
DA:12,0
DA:16,0
DA:17,0
DA:18,0
DA:19,0
DA:23,0
DA:24,0
DA:25,0
DA:26,0
DA:30,0
DA:31,0
DA:32,0
DA:33,0
DA:35,0
DA:38,0
DA:40,0
DA:42,0
DA:43,0
DA:44,0
DA:45,0
DA:47,0
DA:48,0
DA:49,0
DA:50,0
DA:52,0
DA:56,0
DA:57,0
LF:33
LH:0
end_of_record
SF:/Users/michelguillaume/Documents/Michel/code/boost_server/BoostServer/src/HttpSession.hpp
FN:39,_ZN11HttpSessionD2Ev
FN:39,_ZN11HttpSessionD1Ev
FN:45,_ZN11HttpSession11send_lambdaC1ERS_
FN:45,_ZN11HttpSession11send_lambdaC2ERS_
FN:93,_ZN11HttpSessionC2EON5boost4asio19basic_stream_socketINS1_2ip3tcpENS1_8executorEEERKNSt3__110shared_ptrIKNS8_12basic_stringIcNS8_11char_traitsIcEENS8_9allocatorIcEEEEEE
FN:93,_ZN11HttpSessionC1EON5boost4asio19basic_stream_socketINS1_2ip3tcpENS1_8executorEEERKNSt3__110shared_ptrIKNS8_12basic_stringIcNS8_11char_traitsIcEENS8_9allocatorIcEEEEEE
FNDA:0,_ZN11HttpSessionD1Ev
FNDA:0,_ZN11HttpSessionD2Ev
FNDA:0,_ZN11HttpSession11send_lambdaC1ERS_
FNDA:0,_ZN11HttpSession11send_lambdaC2ERS_
FNDA:0,_ZN11HttpSessionC1EON5boost4asio19basic_stream_socketINS1_2ip3tcpENS1_8executorEEERKNSt3__110shared_ptrIKNS8_12basic_stringIcNS8_11char_traitsIcEENS8_9allocatorIcEEEEEE
FNDA:0,_ZN11HttpSessionC2EON5boost4asio19basic_stream_socketINS1_2ip3tcpENS1_8executorEEERKNSt3__110shared_ptrIKNS8_12basic_stringIcNS8_11char_traitsIcEENS8_9allocatorIcEEEEEE
FNF:6
FNH:0
DA:39,0
DA:45,0
DA:93,0
DA:95,0
LF:4
LH:0
end_of_record
TN:
SF:/Users/michelguillaume/Documents/Michel/code/boost_server/BoostServer/src/Logger/Logger.cpp
FN:7,_ZN6Logger8getLevelEv
FN:13,_ZN6Logger8setLevelEi
FN:22,_ZN6Logger5debugERKNSt3__112basic_stringIcNS0_11char_traitsIcEENS0_9allocatorIcEEEE
FN:31,_ZN6Logger4infoERKNSt3__112basic_stringIcNS0_11char_traitsIcEENS0_9allocatorIcEEEE
FN:40,_ZN6Logger4warnERKNSt3__112basic_stringIcNS0_11char_traitsIcEENS0_9allocatorIcEEEE
FN:49,_ZN6Logger5errorERKNSt3__112basic_stringIcNS0_11char_traitsIcEENS0_9allocatorIcEEEE
FNDA:0,_ZN6Logger8getLevelEv
FNDA:0,_ZN6Logger8setLevelEi
FNDA:0,_ZN6Logger5debugERKNSt3__112basic_stringIcNS0_11char_traitsIcEENS0_9allocatorIcEEEE
FNDA:7,_ZN6Logger4infoERKNSt3__112basic_stringIcNS0_11char_traitsIcEENS0_9allocatorIcEEEE
FNDA:0,_ZN6Logger4warnERKNSt3__112basic_stringIcNS0_11char_traitsIcEENS0_9allocatorIcEEEE
FNDA:0,_ZN6Logger5errorERKNSt3__112basic_stringIcNS0_11char_traitsIcEENS0_9allocatorIcEEEE
FNF:6
FNH:1
DA:7,0
DA:13,0
DA:14,0
DA:15,0
DA:16,0
DA:17,0
DA:22,0
DA:23,0
DA:24,0
DA:25,0
DA:26,0
DA:31,7
DA:32,7
DA:33,7
DA:34,7
DA:35,7
DA:40,0
DA:41,0
DA:42,0
DA:43,0
DA:44,0
DA:49,0
DA:50,0
DA:51,0
DA:52,0
DA:53,0
LF:26
LH:5
end_of_record
TN:
SF:/Users/michelguillaume/Documents/Michel/code/boost_server/BoostServer/src/HttpListener.hpp
FN:16,_ZN12HttpListenerD1Ev
FN:16,_ZN12HttpListenerD2Ev
FNDA:0,_ZN12HttpListenerD1Ev
FNDA:0,_ZN12HttpListenerD2Ev
FNF:2
FNH:0
DA:16,0
LF:1
LH:0
end_of_record
SF:/Users/michelguillaume/Documents/Michel/code/boost_server/BoostServer/src/HttpServer.cpp
FN:3,_ZN10HttpServerC1EPcS0_S0_S0_
FN:3,_ZN10HttpServerC2EPcS0_S0_S0_
FN:22,_ZZN10HttpServerC1EPcS0_S0_S0_ENK3$_0clEv
FNDA:0,_ZN10HttpServerC2EPcS0_S0_S0_
FNDA:0,_ZN10HttpServerC1EPcS0_S0_S0_
FNDA:0,_ZZN10HttpServerC1EPcS0_S0_S0_ENK3$_0clEv
FNF:3
FNH:0
DA:3,0
DA:4,0
DA:5,0
DA:6,0
DA:7,0
DA:8,0
DA:11,0
DA:14,0
DA:16,0
DA:19,0
DA:20,0
DA:21,0
DA:22,0
DA:23,0
DA:24,0
LF:15
LH:0
end_of_record
TN:
SF:/Users/michelguillaume/Documents/Michel/code/boost_server/BoostServer/src/Logger/LoggerConsole.cpp
FN:7,_ZN13LoggerConsole5writeERKNSt3__112basic_stringIcNS0_11char_traitsIcEENS0_9allocatorIcEEEE
FNDA:0,_ZN13LoggerConsole5writeERKNSt3__112basic_stringIcNS0_11char_traitsIcEENS0_9allocatorIcEEEE
FNF:1
FNH:0
DA:7,0
DA:8,0
DA:9,0
LF:3
LH:0
end_of_record
TN:
SF:/Users/michelguillaume/Documents/Michel/code/boost_server/BoostServer/src/HttpSession.cpp
FN:8,_ZN11HttpSession7pathCatEN5boost17basic_string_viewIcNSt3__111char_traitsIcEEEES5_
FN:36,_ZN11HttpSession13handleRequestIN5boost5beast4http17basic_string_bodyIcNSt3__111char_traitsIcEENS5_9allocatorIcEEEES9_RNS_11send_lambdaEEEvNS1_17basic_string_viewIcS7_EEONS3_7messageILb1ET_NS3_12basic_fieldsIT0_EEEEOT1_
FN:41,_ZZN11HttpSession13handleRequestIN5boost5beast4http17basic_string_bodyIcNSt3__111char_traitsIcEENS5_9allocatorIcEEEES9_RNS_11send_lambdaEEEvNS1_17basic_string_viewIcS7_EEONS3_7messageILb1ET_NS3_12basic_fieldsIT0_EEEEOT1_ENKUlvE_clEv
FN:95,_ZZN11HttpSession13handleRequestIN5boost5beast4http17basic_string_bodyIcNSt3__111char_traitsIcEENS5_9allocatorIcEEEES9_RNS_11send_lambdaEEEvNS1_17basic_string_viewIcS7_EEONS3_7messageILb1ET_NS3_12basic_fieldsIT0_EEEEOT1_ENKUlSE_E_clESE_
FN:107,_ZZN11HttpSession13handleRequestIN5boost5beast4http17basic_string_bodyIcNSt3__111char_traitsIcEENS5_9allocatorIcEEEES9_RNS_11send_lambdaEEEvNS1_17basic_string_viewIcS7_EEONS3_7messageILb1ET_NS3_12basic_fieldsIT0_EEEEOT1_ENKUlSE_E0_clESE_
FN:119,_ZZN11HttpSession13handleRequestIN5boost5beast4http17basic_string_bodyIcNSt3__111char_traitsIcEENS5_9allocatorIcEEEES9_RNS_11send_lambdaEEEvNS1_17basic_string_viewIcS7_EEONS3_7messageILb1ET_NS3_12basic_fieldsIT0_EEEEOT1_ENKUlSE_E1_clESE_
FN:186,_ZN11HttpSession3runEv
FN:196,_ZN11HttpSession6doReadEv
FN:210,_ZN11HttpSession6onReadEN5boost6system10error_codeEm
FN:224,_ZN11HttpSession7onWriteEbN5boost6system10error_codeEm
FN:244,_ZN11HttpSession7doCloseEv
FNDA:0,_ZN11HttpSession7pathCatEN5boost17basic_string_viewIcNSt3__111char_traitsIcEEEES5_
FNDA:0,_ZN11HttpSession13handleRequestIN5boost5beast4http17basic_string_bodyIcNSt3__111char_traitsIcEENS5_9allocatorIcEEEES9_RNS_11send_lambdaEEEvNS1_17basic_string_viewIcS7_EEONS3_7messageILb1ET_NS3_12basic_fieldsIT0_EEEEOT1_
FNDA:0,_ZZN11HttpSession13handleRequestIN5boost5beast4http17basic_string_bodyIcNSt3__111char_traitsIcEENS5_9allocatorIcEEEES9_RNS_11send_lambdaEEEvNS1_17basic_string_viewIcS7_EEONS3_7messageILb1ET_NS3_12basic_fieldsIT0_EEEEOT1_ENKUlvE_clEv
FNDA:0,_ZZN11HttpSession13handleRequestIN5boost5beast4http17basic_string_bodyIcNSt3__111char_traitsIcEENS5_9allocatorIcEEEES9_RNS_11send_lambdaEEEvNS1_17basic_string_viewIcS7_EEONS3_7messageILb1ET_NS3_12basic_fieldsIT0_EEEEOT1_ENKUlSE_E_clESE_
FNDA:0,_ZZN11HttpSession13handleRequestIN5boost5beast4http17basic_string_bodyIcNSt3__111char_traitsIcEENS5_9allocatorIcEEEES9_RNS_11send_lambdaEEEvNS1_17basic_string_viewIcS7_EEONS3_7messageILb1ET_NS3_12basic_fieldsIT0_EEEEOT1_ENKUlSE_E0_clESE_
FNDA:0,_ZZN11HttpSession13handleRequestIN5boost5beast4http17basic_string_bodyIcNSt3__111char_traitsIcEENS5_9allocatorIcEEEES9_RNS_11send_lambdaEEEvNS1_17basic_string_viewIcS7_EEONS3_7messageILb1ET_NS3_12basic_fieldsIT0_EEEEOT1_ENKUlSE_E1_clESE_
FNDA:0,_ZN11HttpSession3runEv
FNDA:0,_ZN11HttpSession6doReadEv
FNDA:0,_ZN11HttpSession6onReadEN5boost6system10error_codeEm
FNDA:0,_ZN11HttpSession7onWriteEbN5boost6system10error_codeEm
FNDA:0,_ZN11HttpSession7doCloseEv
FNF:11
FNH:0
DA:8,0
DA:10,0
DA:11,0
DA:12,0
DA:22,0
DA:23,0
DA:24,0
DA:25,0
DA:27,0
DA:28,0
DA:36,0
DA:41,0
DA:42,0
DA:43,0
DA:44,0
DA:45,0
DA:46,0
DA:49,0
DA:51,0
DA:52,0
DA:55,0
DA:56,0
DA:57,0
DA:60,0
DA:61,0
DA:63,0
DA:66,0
DA:67,0
DA:68,0
DA:69,0
DA:70,0
DA:71,0
DA:73,0
DA:75,0
DA:76,0
DA:78,0
DA:79,0
DA:82,0
DA:83,0
DA:84,0
DA:86,0
DA:87,0
DA:89,0
DA:90,0
DA:91,0
DA:92,0
DA:95,0
DA:96,0
DA:97,0
DA:98,0
DA:99,0
DA:100,0
DA:101,0
DA:102,0
DA:103,0
DA:104,0
DA:107,0
DA:108,0
DA:109,0
DA:110,0
DA:111,0
DA:112,0
DA:113,0
DA:114,0
DA:115,0
DA:116,0
DA:119,0
DA:120,0
DA:121,0
DA:122,0
DA:123,0
DA:124,0
DA:125,0
DA:126,0
DA:127,0
DA:128,0
DA:131,0
DA:132,0
DA:134,0
DA:135,0
DA:139,0
DA:140,0
DA:141,0
DA:144,0
DA:145,0
DA:146,0
DA:149,0
DA:150,0
DA:151,0
DA:154,0
DA:155,0
DA:158,0
DA:159,0
DA:162,0
DA:165,0
DA:166,0
DA:167,0
DA:168,0
DA:169,0
DA:170,0
DA:171,0
DA:172,0
DA:175,0
DA:176,0
DA:177,0
DA:178,0
DA:179,0
DA:180,0
DA:181,0
DA:182,0
DA:183,0
DA:186,0
DA:191,0
DA:192,0
DA:193,0
DA:194,0
DA:196,0
DA:199,0
DA:202,0
DA:205,0
DA:206,0
DA:207,0
DA:208,0
DA:210,0
DA:211,0
DA:214,0
DA:215,0
DA:217,0
DA:218,0
DA:221,0
DA:222,0
DA:224,0
DA:226,0
DA:228,0
DA:229,0
DA:231,0
DA:234,0
DA:238,0
DA:241,0
DA:242,0
DA:244,0
DA:246,0
DA:247,0
DA:250,0
LF:144
LH:0
end_of_record
SF:/Users/michelguillaume/Documents/Michel/code/boost_server/BoostServer/src/HttpSession.hpp
FN:48,_ZNK11HttpSession11send_lambdaclILb0EN5boost5beast4http15basic_file_bodyINS3_10file_posixEEENS4_12basic_fieldsINSt3__19allocatorIcEEEEEEvONS4_7messageIXT_ET0_T1_EE
FN:48,_ZNK11HttpSession11send_lambdaclILb0EN5boost5beast4http10empty_bodyENS4_12basic_fieldsINSt3__19allocatorIcEEEEEEvONS4_7messageIXT_ET0_T1_EE
FN:48,_ZNK11HttpSession11send_lambdaclILb0EN5boost5beast4http17basic_string_bodyIcNSt3__111char_traitsIcEENS6_9allocatorIcEEEENS4_12basic_fieldsISA_EEEEvONS4_7messageIXT_ET0_T1_EE
FNDA:0,_ZNK11HttpSession11send_lambdaclILb0EN5boost5beast4http17basic_string_bodyIcNSt3__111char_traitsIcEENS6_9allocatorIcEEEENS4_12basic_fieldsISA_EEEEvONS4_7messageIXT_ET0_T1_EE
FNDA:0,_ZNK11HttpSession11send_lambdaclILb0EN5boost5beast4http10empty_bodyENS4_12basic_fieldsINSt3__19allocatorIcEEEEEEvONS4_7messageIXT_ET0_T1_EE
FNDA:0,_ZNK11HttpSession11send_lambdaclILb0EN5boost5beast4http15basic_file_bodyINS3_10file_posixEEENS4_12basic_fieldsINSt3__19allocatorIcEEEEEEvONS4_7messageIXT_ET0_T1_EE
FNF:3
FNH:0
DA:48,0
DA:52,0
DA:53,0
DA:57,0
DA:60,0
DA:61,0
DA:62,0
DA:63,0
DA:64,0
LF:9
LH:0
end_of_record
TN:
SF:/Users/michelguillaume/Documents/Michel/code/boost_server/BoostServer/src/Logger/Logger.hpp
FN:44,_ZN6LoggerC2Ev
FNDA:7,_ZN6LoggerC2Ev
FNF:1
FNH:1
DA:44,7
DA:50,7
LF:2
LH:2
end_of_record
SF:/Users/michelguillaume/Documents/Michel/code/boost_server/BoostServer/src/Logger/LoggerFile.cpp
FN:5,_ZN10LoggerFileC1Ev
FN:5,_ZN10LoggerFileC2Ev
FN:10,_ZN10LoggerFile5writeERKNSt3__112basic_stringIcNS0_11char_traitsIcEENS0_9allocatorIcEEEE
FN:20,_ZN10LoggerFileD1Ev
FN:20,_ZN10LoggerFileD2Ev
FNDA:7,_ZN10LoggerFileC2Ev
FNDA:7,_ZN10LoggerFileC1Ev
FNDA:7,_ZN10LoggerFile5writeERKNSt3__112basic_stringIcNS0_11char_traitsIcEENS0_9allocatorIcEEEE
FNDA:7,_ZN10LoggerFileD2Ev
FNDA:7,_ZN10LoggerFileD1Ev
FNF:5
FNH:5
DA:5,14
DA:10,7
DA:11,7
DA:12,7
DA:14,7
DA:15,7
DA:16,7
DA:20,14
LF:8
LH:8
end_of_record
TN:
SF:/Users/michelguillaume/Documents/Michel/code/boost_server/BoostServer/src/HttpUtils.cpp
FN:6,_ZN9HttpUtilsC2Ev
FN:6,_ZN9HttpUtilsC1Ev
FN:13,_ZN9HttpUtils11getMimeTypeEN5boost17basic_string_viewIcNSt3__111char_traitsIcEEEE
FN:15,_ZZN9HttpUtils11getMimeTypeEN5boost17basic_string_viewIcNSt3__111char_traitsIcEEEEENK3$_0clEv
FN:66,_ZN9HttpUtils6onFailEN5boost6system10error_codeEPKc
FN:75,_ZN9HttpUtilsD1Ev
FN:75,_ZN9HttpUtilsD2Ev
FNDA:0,_ZN9HttpUtilsC2Ev
FNDA:0,_ZN9HttpUtilsC1Ev
FNDA:7,_ZN9HttpUtils11getMimeTypeEN5boost17basic_string_viewIcNSt3__111char_traitsIcEEEE
FNDA:7,_ZZN9HttpUtils11getMimeTypeEN5boost17basic_string_viewIcNSt3__111char_traitsIcEEEEENK3$_0clEv
FNDA:0,_ZN9HttpUtils6onFailEN5boost6system10error_codeEPKc
FNDA:0,_ZN9HttpUtilsD2Ev
FNDA:0,_ZN9HttpUtilsD1Ev
FNF:7
FNH:2
DA:6,0
DA:13,7
DA:15,14
DA:16,7
DA:17,7
DA:18,2
DA:19,5
DA:20,7
DA:22,7
DA:24,7
DA:25,1
DA:26,7
DA:27,0
DA:28,6
DA:29,1
DA:30,6
DA:31,0
DA:32,5
DA:33,0
DA:34,5
DA:35,0
DA:36,5
DA:37,0
DA:38,5
DA:39,0
DA:40,5
DA:41,0
DA:42,5
DA:43,4
DA:44,1
DA:45,5
DA:46,1
DA:47,4
DA:48,0
DA:49,3
DA:50,0
DA:51,3
DA:52,0
DA:53,3
DA:54,0
DA:55,0
DA:56,7
DA:57,7
DA:59,7
DA:66,0
DA:67,0
DA:68,0
DA:69,0
DA:75,0
LF:49
LH:31
end_of_record
