TN:
SF:/Users/michelguillaume/Documents/Michel/code/boost_server/BoostServer/src/HttpListener.cpp
FN:3,_ZN12HttpListenerC2ERN5boost4asio10io_contextENS1_2ip14basic_endpointINS4_3tcpEEERKNSt3__110shared_ptrIKNS8_12basic_stringIcNS8_11char_traitsIcEENS8_9allocatorIcEEEEEE
FN:3,_ZN12HttpListenerC1ERN5boost4asio10io_contextENS1_2ip14basic_endpointINS4_3tcpEEERKNSt3__110shared_ptrIKNS8_12basic_stringIcNS8_11char_traitsIcEENS8_9allocatorIcEEEEEE
FN:38,_ZN12HttpListener3runEv
FN:40,_ZN12HttpListener8doAcceptEv
FN:47,_ZN12HttpListener8onAcceptEN5boost6system10error_codeENS0_4asio19basic_stream_socketINS3_2ip3tcpENS3_8executorEEE
FNDA:1,_ZN12HttpListenerC2ERN5boost4asio10io_contextENS1_2ip14basic_endpointINS4_3tcpEEERKNSt3__110shared_ptrIKNS8_12basic_stringIcNS8_11char_traitsIcEENS8_9allocatorIcEEEEEE
FNDA:1,_ZN12HttpListenerC1ERN5boost4asio10io_contextENS1_2ip14basic_endpointINS4_3tcpEEERKNSt3__110shared_ptrIKNS8_12basic_stringIcNS8_11char_traitsIcEENS8_9allocatorIcEEEEEE
FNDA:1,_ZN12HttpListener3runEv
FNDA:2,_ZN12HttpListener8doAcceptEv
FNDA:1,_ZN12HttpListener8onAcceptEN5boost6system10error_codeENS0_4asio19basic_stream_socketINS3_2ip3tcpENS3_8executorEEE
FNF:5
FNH:5
DA:3,2
DA:5,3
DA:6,1
DA:9,1
DA:10,1
DA:11,0
DA:12,0
DA:16,1
DA:17,1
DA:18,0
DA:19,0
DA:23,1
DA:24,1
DA:25,0
DA:26,0
DA:30,1
DA:31,1
DA:32,0
DA:33,0
DA:35,2
DA:38,1
DA:40,2
DA:42,4
DA:43,2
DA:44,2
DA:45,2
DA:47,1
DA:48,1
DA:49,0
DA:50,0
DA:52,1
DA:56,1
DA:57,1
LF:33
LH:23
end_of_record
SF:/Users/michelguillaume/Documents/Michel/code/boost_server/BoostServer/src/HttpSession.hpp
FN:39,_ZN11HttpSessionD1Ev
FN:39,_ZN11HttpSessionD2Ev
FN:45,_ZN11HttpSession11send_lambdaC1ERS_
FN:45,_ZN11HttpSession11send_lambdaC2ERS_
FN:93,_ZN11HttpSessionC2EON5boost4asio19basic_stream_socketINS1_2ip3tcpENS1_8executorEEERKNSt3__110shared_ptrIKNS8_12basic_stringIcNS8_11char_traitsIcEENS8_9allocatorIcEEEEEE
FN:93,_ZN11HttpSessionC1EON5boost4asio19basic_stream_socketINS1_2ip3tcpENS1_8executorEEERKNSt3__110shared_ptrIKNS8_12basic_stringIcNS8_11char_traitsIcEENS8_9allocatorIcEEEEEE
FNDA:1,_ZN11HttpSessionD1Ev
FNDA:1,_ZN11HttpSessionD2Ev
FNDA:1,_ZN11HttpSession11send_lambdaC1ERS_
FNDA:1,_ZN11HttpSession11send_lambdaC2ERS_
FNDA:1,_ZN11HttpSessionC1EON5boost4asio19basic_stream_socketINS1_2ip3tcpENS1_8executorEEERKNSt3__110shared_ptrIKNS8_12basic_stringIcNS8_11char_traitsIcEENS8_9allocatorIcEEEEEE
FNDA:1,_ZN11HttpSessionC2EON5boost4asio19basic_stream_socketINS1_2ip3tcpENS1_8executorEEERKNSt3__110shared_ptrIKNS8_12basic_stringIcNS8_11char_traitsIcEENS8_9allocatorIcEEEEEE
FNF:6
FNH:6
DA:39,2
DA:45,2
DA:93,2
DA:95,3
LF:4
LH:4
end_of_record
TN:
SF:/Users/michelguillaume/Documents/Michel/code/boost_server/BoostServer/src/Logger/Logger.cpp
FN:7,_ZN6Logger8getLevelEv
FN:13,_ZN6Logger8setLevelEi
FN:22,_ZN6Logger5debugERKNSt3__112basic_stringIcNS0_11char_traitsIcEENS0_9allocatorIcEEEE
FN:31,_ZN6Logger4infoERKNSt3__112basic_stringIcNS0_11char_traitsIcEENS0_9allocatorIcEEEE
FN:40,_ZN6Logger4warnERKNSt3__112basic_stringIcNS0_11char_traitsIcEENS0_9allocatorIcEEEE
FN:49,_ZN6Logger5errorERKNSt3__112basic_stringIcNS0_11char_traitsIcEENS0_9allocatorIcEEEE
FNDA:0,_ZN6Logger8getLevelEv
FNDA:0,_ZN6Logger8setLevelEi
FNDA:0,_ZN6Logger5debugERKNSt3__112basic_stringIcNS0_11char_traitsIcEENS0_9allocatorIcEEEE
FNDA:0,_ZN6Logger4infoERKNSt3__112basic_stringIcNS0_11char_traitsIcEENS0_9allocatorIcEEEE
FNDA:0,_ZN6Logger4warnERKNSt3__112basic_stringIcNS0_11char_traitsIcEENS0_9allocatorIcEEEE
FNDA:0,_ZN6Logger5errorERKNSt3__112basic_stringIcNS0_11char_traitsIcEENS0_9allocatorIcEEEE
FNF:6
FNH:0
DA:7,0
DA:13,0
DA:14,0
DA:15,0
DA:16,0
DA:17,0
DA:22,0
DA:23,0
DA:24,0
DA:25,0
DA:26,0
DA:31,0
DA:32,0
DA:33,0
DA:34,0
DA:35,0
DA:40,0
DA:41,0
DA:42,0
DA:43,0
DA:44,0
DA:49,0
DA:50,0
DA:51,0
DA:52,0
DA:53,0
LF:26
LH:0
end_of_record
TN:
SF:/Users/michelguillaume/Documents/Michel/code/boost_server/BoostServer/src/HttpListener.hpp
FN:16,_ZN12HttpListenerD2Ev
FN:16,_ZN12HttpListenerD1Ev
FNDA:1,_ZN12HttpListenerD1Ev
FNDA:1,_ZN12HttpListenerD2Ev
FNF:2
FNH:2
DA:16,2
LF:1
LH:1
end_of_record
SF:/Users/michelguillaume/Documents/Michel/code/boost_server/BoostServer/src/HttpServer.cpp
FN:3,_ZN10HttpServerC1EPcS0_S0_S0_
FN:3,_ZN10HttpServerC2EPcS0_S0_S0_
FN:22,_ZZN10HttpServerC1EPcS0_S0_S0_ENK3$_0clEv
FNDA:1,_ZN10HttpServerC2EPcS0_S0_S0_
FNDA:1,_ZN10HttpServerC1EPcS0_S0_S0_
FNDA:0,_ZZN10HttpServerC1EPcS0_S0_S0_ENK3$_0clEv
FNF:3
FNH:2
DA:3,2
DA:4,1
DA:5,1
DA:6,1
DA:7,1
DA:8,1
DA:11,1
DA:14,1
DA:16,1
DA:19,1
DA:20,1
DA:21,1
DA:22,0
DA:23,0
DA:24,1
DA:25,1
DA:26,1
DA:27,2
LF:18
LH:16
end_of_record
TN:
SF:/Users/michelguillaume/Documents/Michel/code/boost_server/BoostServer/src/Logger/LoggerConsole.cpp
FN:7,_ZN13LoggerConsole5writeERKNSt3__112basic_stringIcNS0_11char_traitsIcEENS0_9allocatorIcEEEE
FNDA:0,_ZN13LoggerConsole5writeERKNSt3__112basic_stringIcNS0_11char_traitsIcEENS0_9allocatorIcEEEE
FNF:1
FNH:0
DA:7,0
DA:8,0
DA:9,0
LF:3
LH:0
end_of_record
TN:
SF:/Users/michelguillaume/Documents/Michel/code/boost_server/BoostServer/src/HttpServer.hpp
FN:14,_ZN10HttpServerD2Ev
FN:14,_ZN10HttpServerD1Ev
FNDA:1,_ZN10HttpServerD1Ev
FNDA:1,_ZN10HttpServerD2Ev
FNF:2
FNH:2
DA:14,2
LF:1
LH:1
end_of_record
SF:/Users/michelguillaume/Documents/Michel/code/boost_server/BoostServer/src/main.cpp
FN:4,main
FNDA:1,main
FNF:1
FNH:1
DA:4,1
DA:6,1
DA:7,0
DA:8,0
DA:9,0
DA:10,0
DA:14,1
DA:16,1
DA:17,1
LF:9
LH:5
end_of_record
TN:
SF:/Users/michelguillaume/Documents/Michel/code/boost_server/BoostServer/src/HttpSession.cpp
FN:8,_ZN11HttpSession7pathCatEN5boost17basic_string_viewIcNSt3__111char_traitsIcEEEES5_
FN:36,_ZN11HttpSession13handleRequestIN5boost5beast4http17basic_string_bodyIcNSt3__111char_traitsIcEENS5_9allocatorIcEEEES9_RNS_11send_lambdaEEEvNS1_17basic_string_viewIcS7_EEONS3_7messageILb1ET_NS3_12basic_fieldsIT0_EEEEOT1_
FN:41,_ZZN11HttpSession13handleRequestIN5boost5beast4http17basic_string_bodyIcNSt3__111char_traitsIcEENS5_9allocatorIcEEEES9_RNS_11send_lambdaEEEvNS1_17basic_string_viewIcS7_EEONS3_7messageILb1ET_NS3_12basic_fieldsIT0_EEEEOT1_ENKUlvE_clEv
FN:95,_ZZN11HttpSession13handleRequestIN5boost5beast4http17basic_string_bodyIcNSt3__111char_traitsIcEENS5_9allocatorIcEEEES9_RNS_11send_lambdaEEEvNS1_17basic_string_viewIcS7_EEONS3_7messageILb1ET_NS3_12basic_fieldsIT0_EEEEOT1_ENKUlSE_E_clESE_
FN:107,_ZZN11HttpSession13handleRequestIN5boost5beast4http17basic_string_bodyIcNSt3__111char_traitsIcEENS5_9allocatorIcEEEES9_RNS_11send_lambdaEEEvNS1_17basic_string_viewIcS7_EEONS3_7messageILb1ET_NS3_12basic_fieldsIT0_EEEEOT1_ENKUlSE_E0_clESE_
FN:119,_ZZN11HttpSession13handleRequestIN5boost5beast4http17basic_string_bodyIcNSt3__111char_traitsIcEENS5_9allocatorIcEEEES9_RNS_11send_lambdaEEEvNS1_17basic_string_viewIcS7_EEONS3_7messageILb1ET_NS3_12basic_fieldsIT0_EEEEOT1_ENKUlSE_E1_clESE_
FN:186,_ZN11HttpSession3runEv
FN:196,_ZN11HttpSession6doReadEv
FN:210,_ZN11HttpSession6onReadEN5boost6system10error_codeEm
FN:224,_ZN11HttpSession7onWriteEbN5boost6system10error_codeEm
FN:244,_ZN11HttpSession7doCloseEv
FNDA:0,_ZN11HttpSession7pathCatEN5boost17basic_string_viewIcNSt3__111char_traitsIcEEEES5_
FNDA:1,_ZN11HttpSession13handleRequestIN5boost5beast4http17basic_string_bodyIcNSt3__111char_traitsIcEENS5_9allocatorIcEEEES9_RNS_11send_lambdaEEEvNS1_17basic_string_viewIcS7_EEONS3_7messageILb1ET_NS3_12basic_fieldsIT0_EEEEOT1_
FNDA:1,_ZZN11HttpSession13handleRequestIN5boost5beast4http17basic_string_bodyIcNSt3__111char_traitsIcEENS5_9allocatorIcEEEES9_RNS_11send_lambdaEEEvNS1_17basic_string_viewIcS7_EEONS3_7messageILb1ET_NS3_12basic_fieldsIT0_EEEEOT1_ENKUlvE_clEv
FNDA:0,_ZZN11HttpSession13handleRequestIN5boost5beast4http17basic_string_bodyIcNSt3__111char_traitsIcEENS5_9allocatorIcEEEES9_RNS_11send_lambdaEEEvNS1_17basic_string_viewIcS7_EEONS3_7messageILb1ET_NS3_12basic_fieldsIT0_EEEEOT1_ENKUlSE_E_clESE_
FNDA:0,_ZZN11HttpSession13handleRequestIN5boost5beast4http17basic_string_bodyIcNSt3__111char_traitsIcEENS5_9allocatorIcEEEES9_RNS_11send_lambdaEEEvNS1_17basic_string_viewIcS7_EEONS3_7messageILb1ET_NS3_12basic_fieldsIT0_EEEEOT1_ENKUlSE_E0_clESE_
FNDA:0,_ZZN11HttpSession13handleRequestIN5boost5beast4http17basic_string_bodyIcNSt3__111char_traitsIcEENS5_9allocatorIcEEEES9_RNS_11send_lambdaEEEvNS1_17basic_string_viewIcS7_EEONS3_7messageILb1ET_NS3_12basic_fieldsIT0_EEEEOT1_ENKUlSE_E1_clESE_
FNDA:1,_ZN11HttpSession3runEv
FNDA:2,_ZN11HttpSession6doReadEv
FNDA:2,_ZN11HttpSession6onReadEN5boost6system10error_codeEm
FNDA:1,_ZN11HttpSession7onWriteEbN5boost6system10error_codeEm
FNDA:1,_ZN11HttpSession7doCloseEv
FNF:11
FNH:7
DA:8,0
DA:10,0
DA:11,0
DA:12,0
DA:22,0
DA:23,0
DA:24,0
DA:25,0
DA:27,0
DA:28,0
DA:36,1
DA:41,2
DA:42,1
DA:43,1
DA:44,1
DA:45,1
DA:46,1
DA:49,1
DA:51,1
DA:52,1
DA:55,1
DA:56,1
DA:57,1
DA:60,4
DA:61,3
DA:63,1
DA:66,1
DA:67,1
DA:68,1
DA:69,1
DA:70,1
DA:71,1
DA:73,1
DA:75,1
DA:76,4
DA:78,3
DA:79,3
DA:82,3
DA:83,3
DA:84,1
DA:86,1
DA:87,1
DA:89,1
DA:90,1
DA:91,1
DA:92,7
DA:95,1
DA:96,0
DA:97,0
DA:98,0
DA:99,0
DA:100,0
DA:101,0
DA:102,0
DA:103,0
DA:104,0
DA:107,1
DA:108,0
DA:109,0
DA:110,0
DA:111,0
DA:112,0
DA:113,0
DA:114,0
DA:115,0
DA:116,0
DA:119,1
DA:120,0
DA:121,0
DA:122,0
DA:123,0
DA:124,0
DA:125,0
DA:126,0
DA:127,0
DA:128,0
DA:131,1
DA:132,0
DA:134,1
DA:135,1
DA:139,0
DA:140,0
DA:141,0
DA:144,0
DA:145,0
DA:146,0
DA:149,0
DA:150,0
DA:151,0
DA:154,0
DA:155,0
DA:158,0
DA:159,0
DA:162,0
DA:165,0
DA:166,0
DA:167,0
DA:168,0
DA:169,0
DA:170,0
DA:171,0
DA:172,0
DA:175,0
DA:176,0
DA:177,0
DA:178,0
DA:179,0
DA:180,0
DA:181,0
DA:182,0
DA:183,1
DA:186,1
DA:191,1
DA:192,1
DA:193,1
DA:194,1
DA:196,2
DA:199,2
DA:202,2
DA:205,2
DA:206,2
DA:207,2
DA:208,2
DA:210,2
DA:211,2
DA:214,2
DA:215,1
DA:217,1
DA:218,0
DA:221,1
DA:222,2
DA:224,1
DA:226,1
DA:228,1
DA:229,0
DA:231,1
DA:234,0
DA:238,1
DA:241,1
DA:242,1
DA:244,1
DA:246,1
DA:247,1
DA:250,1
LF:144
LH:73
end_of_record
SF:/Users/michelguillaume/Documents/Michel/code/boost_server/BoostServer/src/HttpSession.hpp
FN:48,_ZNK11HttpSession11send_lambdaclILb0EN5boost5beast4http10empty_bodyENS4_12basic_fieldsINSt3__19allocatorIcEEEEEEvONS4_7messageIXT_ET0_T1_EE
FN:48,_ZNK11HttpSession11send_lambdaclILb0EN5boost5beast4http17basic_string_bodyIcNSt3__111char_traitsIcEENS6_9allocatorIcEEEENS4_12basic_fieldsISA_EEEEvONS4_7messageIXT_ET0_T1_EE
FN:48,_ZNK11HttpSession11send_lambdaclILb0EN5boost5beast4http15basic_file_bodyINS3_10file_posixEEENS4_12basic_fieldsINSt3__19allocatorIcEEEEEEvONS4_7messageIXT_ET0_T1_EE
FNDA:1,_ZNK11HttpSession11send_lambdaclILb0EN5boost5beast4http17basic_string_bodyIcNSt3__111char_traitsIcEENS6_9allocatorIcEEEENS4_12basic_fieldsISA_EEEEvONS4_7messageIXT_ET0_T1_EE
FNDA:0,_ZNK11HttpSession11send_lambdaclILb0EN5boost5beast4http10empty_bodyENS4_12basic_fieldsINSt3__19allocatorIcEEEEEEvONS4_7messageIXT_ET0_T1_EE
FNDA:0,_ZNK11HttpSession11send_lambdaclILb0EN5boost5beast4http15basic_file_bodyINS3_10file_posixEEENS4_12basic_fieldsINSt3__19allocatorIcEEEEEEvONS4_7messageIXT_ET0_T1_EE
FNF:3
FNH:1
DA:48,1
DA:52,1
DA:53,1
DA:57,1
DA:60,2
DA:61,2
DA:62,1
DA:63,1
DA:64,1
LF:9
LH:9
end_of_record
TN:
SF:/Users/michelguillaume/Documents/Michel/code/boost_server/BoostServer/src/Logger/Logger.hpp
FN:44,_ZN6LoggerC2Ev
FNDA:0,_ZN6LoggerC2Ev
FNF:1
FNH:0
DA:44,0
DA:50,0
LF:2
LH:0
end_of_record
SF:/Users/michelguillaume/Documents/Michel/code/boost_server/BoostServer/src/Logger/LoggerFile.cpp
FN:5,_ZN10LoggerFileC1Ev
FN:5,_ZN10LoggerFileC2Ev
FN:10,_ZN10LoggerFile5writeERKNSt3__112basic_stringIcNS0_11char_traitsIcEENS0_9allocatorIcEEEE
FN:20,_ZN10LoggerFileD2Ev
FN:20,_ZN10LoggerFileD1Ev
FNDA:0,_ZN10LoggerFileC2Ev
FNDA:0,_ZN10LoggerFileC1Ev
FNDA:0,_ZN10LoggerFile5writeERKNSt3__112basic_stringIcNS0_11char_traitsIcEENS0_9allocatorIcEEEE
FNDA:0,_ZN10LoggerFileD2Ev
FNDA:0,_ZN10LoggerFileD1Ev
FNF:5
FNH:0
DA:5,0
DA:10,0
DA:11,0
DA:12,0
DA:14,0
DA:15,0
DA:16,0
DA:20,0
LF:8
LH:0
end_of_record
TN:
SF:/Users/michelguillaume/Documents/Michel/code/boost_server/BoostServer/src/HttpUtils.cpp
FN:6,_ZN9HttpUtilsC2Ev
FN:6,_ZN9HttpUtilsC1Ev
FN:13,_ZN9HttpUtils11getMimeTypeEN5boost17basic_string_viewIcNSt3__111char_traitsIcEEEE
FN:15,_ZZN9HttpUtils11getMimeTypeEN5boost17basic_string_viewIcNSt3__111char_traitsIcEEEEENK3$_0clEv
FN:66,_ZN9HttpUtils6onFailEN5boost6system10error_codeEPKc
FN:75,_ZN9HttpUtilsD1Ev
FN:75,_ZN9HttpUtilsD2Ev
FNDA:0,_ZN9HttpUtilsC2Ev
FNDA:0,_ZN9HttpUtilsC1Ev
FNDA:0,_ZN9HttpUtils11getMimeTypeEN5boost17basic_string_viewIcNSt3__111char_traitsIcEEEE
FNDA:0,_ZZN9HttpUtils11getMimeTypeEN5boost17basic_string_viewIcNSt3__111char_traitsIcEEEEENK3$_0clEv
FNDA:0,_ZN9HttpUtils6onFailEN5boost6system10error_codeEPKc
FNDA:0,_ZN9HttpUtilsD2Ev
FNDA:0,_ZN9HttpUtilsD1Ev
FNF:7
FNH:0
DA:6,0
DA:13,0
DA:15,0
DA:16,0
DA:17,0
DA:18,0
DA:19,0
DA:20,0
DA:22,0
DA:24,0
DA:25,0
DA:26,0
DA:27,0
DA:28,0
DA:29,0
DA:30,0
DA:31,0
DA:32,0
DA:33,0
DA:34,0
DA:35,0
DA:36,0
DA:37,0
DA:38,0
DA:39,0
DA:40,0
DA:41,0
DA:42,0
DA:43,0
DA:44,0
DA:45,0
DA:46,0
DA:47,0
DA:48,0
DA:49,0
DA:50,0
DA:51,0
DA:52,0
DA:53,0
DA:54,0
DA:55,0
DA:56,0
DA:57,0
DA:59,0
DA:66,0
DA:67,0
DA:68,0
DA:69,0
DA:75,0
LF:49
LH:0
end_of_record
